target datalayout = "e-m:e-p270:32:32-p271:32:32-p272:64:64-i64:64-i128:128-f80:128-n8:16:32:64-S128"
target triple = "x86_64-pc-linux-gnu"

%struct._fcgi_request = type { i32, i32, i32, i32, i32, i32, i32, i32, i32, ptr, ptr, [8192 x i8], [16 x i8], %struct._fcgi_req_hook, i32, %struct._fcgi_hash }
%struct._fcgi_req_hook = type { ptr, ptr, ptr }
%struct._fcgi_hash = type { [128 x ptr], ptr, ptr, ptr }

; Function Attrs: nounwind uwtable
define internal i32 @fcgi_get_params(ptr noundef %0, ptr noundef %1, ptr noundef %2) #0 {
  %4 = alloca i32, align 4
  %5 = alloca ptr, align 8
  %6 = alloca ptr, align 8
  %7 = alloca ptr, align 8
  %8 = alloca i32, align 4
  %9 = alloca i32, align 4
  store ptr %0, ptr %5, align 8
  store ptr %1, ptr %6, align 8
  store ptr %2, ptr %7, align 8
  br label %10

10:                                               ; preds = %173, %3
  %11 = load ptr, ptr %6, align 8
  %12 = load ptr, ptr %7, align 8
  %13 = icmp ult ptr %11, %12
  br i1 %13, label %14, label %189

14:                                               ; preds = %10
  %15 = load ptr, ptr %6, align 8
  %16 = getelementptr inbounds i8, ptr %15, i32 1
  store ptr %16, ptr %6, align 8
  %17 = load i8, ptr %15, align 1
  %18 = zext i8 %17 to i32
  store i32 %18, ptr %8, align 4
  %19 = load i32, ptr %8, align 4
  %20 = icmp uge i32 %19, 128
  %21 = xor i1 %20, true
  %22 = xor i1 %21, true
  %23 = zext i1 %22 to i32
  %24 = sext i32 %23 to i64
  %25 = icmp ne i64 %24, 0
  br i1 %25, label %26, label %61

26:                                               ; preds = %14
  %27 = load ptr, ptr %6, align 8
  %28 = getelementptr inbounds i8, ptr %27, i64 3
  %29 = load ptr, ptr %7, align 8
  %30 = icmp uge ptr %28, %29
  %31 = xor i1 %30, true
  %32 = xor i1 %31, true
  %33 = zext i1 %32 to i32
  %34 = sext i32 %33 to i64
  %35 = icmp ne i64 %34, 0
  br i1 %35, label %36, label %37

36:                                               ; preds = %26
  store i32 0, ptr %4, align 4
  br label %190

37:                                               ; preds = %26
  %38 = load i32, ptr %8, align 4
  %39 = and i32 %38, 127
  %40 = shl i32 %39, 24
  store i32 %40, ptr %8, align 4
  %41 = load ptr, ptr %6, align 8
  %42 = getelementptr inbounds i8, ptr %41, i32 1
  store ptr %42, ptr %6, align 8
  %43 = load i8, ptr %41, align 1
  %44 = zext i8 %43 to i32
  %45 = shl i32 %44, 16
  %46 = load i32, ptr %8, align 4
  %47 = or i32 %46, %45
  store i32 %47, ptr %8, align 4
  %48 = load ptr, ptr %6, align 8
  %49 = getelementptr inbounds i8, ptr %48, i32 1
  store ptr %49, ptr %6, align 8
  %50 = load i8, ptr %48, align 1
  %51 = zext i8 %50 to i32
  %52 = shl i32 %51, 8
  %53 = load i32, ptr %8, align 4
  %54 = or i32 %53, %52
  store i32 %54, ptr %8, align 4
  %55 = load ptr, ptr %6, align 8
  %56 = getelementptr inbounds i8, ptr %55, i32 1
  store ptr %56, ptr %6, align 8
  %57 = load i8, ptr %55, align 1
  %58 = zext i8 %57 to i32
  %59 = load i32, ptr %8, align 4
  %60 = or i32 %59, %58
  store i32 %60, ptr %8, align 4
  br label %61

61:                                               ; preds = %37, %14
  %62 = load ptr, ptr %6, align 8
  %63 = load ptr, ptr %7, align 8
  %64 = icmp uge ptr %62, %63
  %65 = xor i1 %64, true
  %66 = xor i1 %65, true
  %67 = zext i1 %66 to i32
  %68 = sext i32 %67 to i64
  %69 = icmp ne i64 %68, 0
  br i1 %69, label %70, label %71

70:                                               ; preds = %61
  store i32 0, ptr %4, align 4
  br label %190

71:                                               ; preds = %61
  %72 = load ptr, ptr %6, align 8
  %73 = getelementptr inbounds i8, ptr %72, i32 1
  store ptr %73, ptr %6, align 8
  %74 = load i8, ptr %72, align 1
  %75 = zext i8 %74 to i32
  store i32 %75, ptr %9, align 4
  %76 = load i32, ptr %9, align 4
  %77 = icmp uge i32 %76, 128
  %78 = xor i1 %77, true
  %79 = xor i1 %78, true
  %80 = zext i1 %79 to i32
  %81 = sext i32 %80 to i64
  %82 = icmp ne i64 %81, 0
  br i1 %82, label %83, label %118

83:                                               ; preds = %71
  %84 = load ptr, ptr %6, align 8
  %85 = getelementptr inbounds i8, ptr %84, i64 3
  %86 = load ptr, ptr %7, align 8
  %87 = icmp uge ptr %85, %86
  %88 = xor i1 %87, true
  %89 = xor i1 %88, true
  %90 = zext i1 %89 to i32
  %91 = sext i32 %90 to i64
  %92 = icmp ne i64 %91, 0
  br i1 %92, label %93, label %94

93:                                               ; preds = %83
  store i32 0, ptr %4, align 4
  br label %190

94:                                               ; preds = %83
  %95 = load i32, ptr %9, align 4
  %96 = and i32 %95, 127
  %97 = shl i32 %96, 24
  store i32 %97, ptr %9, align 4
  %98 = load ptr, ptr %6, align 8
  %99 = getelementptr inbounds i8, ptr %98, i32 1
  store ptr %99, ptr %6, align 8
  %100 = load i8, ptr %98, align 1
  %101 = zext i8 %100 to i32
  %102 = shl i32 %101, 16
  %103 = load i32, ptr %9, align 4
  %104 = or i32 %103, %102
  store i32 %104, ptr %9, align 4
  %105 = load ptr, ptr %6, align 8
  %106 = getelementptr inbounds i8, ptr %105, i32 1
  store ptr %106, ptr %6, align 8
  %107 = load i8, ptr %105, align 1
  %108 = zext i8 %107 to i32
  %109 = shl i32 %108, 8
  %110 = load i32, ptr %9, align 4
  %111 = or i32 %110, %109
  store i32 %111, ptr %9, align 4
  %112 = load ptr, ptr %6, align 8
  %113 = getelementptr inbounds i8, ptr %112, i32 1
  store ptr %113, ptr %6, align 8
  %114 = load i8, ptr %112, align 1
  %115 = zext i8 %114 to i32
  %116 = load i32, ptr %9, align 4
  %117 = or i32 %116, %115
  store i32 %117, ptr %9, align 4
  br label %118

118:                                              ; preds = %94, %71
  %119 = load i32, ptr %8, align 4
  %120 = load i32, ptr %9, align 4
  %121 = add i32 %119, %120
  %122 = load ptr, ptr %7, align 8
  %123 = load ptr, ptr %6, align 8
  %124 = ptrtoint ptr %122 to i64
  %125 = ptrtoint ptr %123 to i64
  %126 = sub i64 %124, %125
  %127 = trunc i64 %126 to i32
  %128 = icmp ugt i32 %121, %127
  %129 = xor i1 %128, true
  %130 = xor i1 %129, true
  %131 = zext i1 %130 to i32
  %132 = sext i32 %131 to i64
  %133 = icmp ne i64 %132, 0
  br i1 %133, label %134, label %135

134:                                              ; preds = %118
  store i32 0, ptr %4, align 4
  br label %190

135:                                              ; preds = %118
  %136 = load ptr, ptr %5, align 8
  %137 = getelementptr inbounds %struct._fcgi_request, ptr %136, i32 0, i32 15
  %138 = load i32, ptr %8, align 4
  %139 = icmp ult i32 %138, 3
  %140 = xor i1 %139, true
  %141 = xor i1 %140, true
  %142 = zext i1 %141 to i32
  %143 = sext i32 %142 to i64
  %144 = icmp ne i64 %143, 0
  br i1 %144, label %145, label %147

145:                                              ; preds = %135
  %146 = load i32, ptr %8, align 4
  br label %173

147:                                              ; preds = %135
  %148 = load ptr, ptr %6, align 8
  %149 = getelementptr inbounds i8, ptr %148, i64 3
  %150 = load i8, ptr %149, align 1
  %151 = zext i8 %150 to i32
  %152 = shl i32 %151, 2
  %153 = load ptr, ptr %6, align 8
  %154 = load i32, ptr %8, align 4
  %155 = sub i32 %154, 2
  %156 = zext i32 %155 to i64
  %157 = getelementptr inbounds i8, ptr %153, i64 %156
  %158 = load i8, ptr %157, align 1
  %159 = zext i8 %158 to i32
  %160 = shl i32 %159, 4
  %161 = add i32 %152, %160
  %162 = load ptr, ptr %6, align 8
  %163 = load i32, ptr %8, align 4
  %164 = sub i32 %163, 1
  %165 = zext i32 %164 to i64
  %166 = getelementptr inbounds i8, ptr %162, i64 %165
  %167 = load i8, ptr %166, align 1
  %168 = zext i8 %167 to i32
  %169 = shl i32 %168, 2
  %170 = add i32 %161, %169
  %171 = load i32, ptr %8, align 4
  %172 = add i32 %170, %171
  br label %173

173:                                              ; preds = %147, %145
  %174 = phi i32 [ %146, %145 ], [ %172, %147 ]
  %175 = load ptr, ptr %6, align 8
  %176 = load i32, ptr %8, align 4
  %177 = load ptr, ptr %6, align 8
  %178 = load i32, ptr %8, align 4
  %179 = zext i32 %178 to i64
  %180 = getelementptr inbounds i8, ptr %177, i64 %179
  %181 = load i32, ptr %9, align 4
  %182 = call ptr @fcgi_hash_set(ptr noundef %137, i32 noundef %174, ptr noundef %175, i32 noundef %176, ptr noundef %180, i32 noundef %181)
  %183 = load i32, ptr %8, align 4
  %184 = load i32, ptr %9, align 4
  %185 = add i32 %183, %184
  %186 = load ptr, ptr %6, align 8
  %187 = zext i32 %185 to i64
  %188 = getelementptr inbounds i8, ptr %186, i64 %187
  store ptr %188, ptr %6, align 8
  br label %10

189:                                              ; preds = %10
  store i32 1, ptr %4, align 4
  br label %190

190:                                              ; preds = %189, %134, %93, %70, %36
  %191 = load i32, ptr %4, align 4
  ret i32 %191
}