; Function Attrs: nofree nounwind uwtable
define internal fastcc noundef i32 @fcgi_get_params(ptr nocapture noundef %0, ptr noundef %1, ptr noundef %2) unnamed_addr #22 {
  %4 = icmp ult ptr %1, %2
  br i1 %4, label %.lr.ph, label %._crit_edge

.lr.ph:                                           ; preds = %3
  %5 = ptrtoint ptr %2 to i64
  %6 = getelementptr inbounds i8, ptr %0, i64 8296
  br label %7

7:                                                ; preds = %.lr.ph, %81
  %.04958 = phi ptr [ %1, %.lr.ph ], [ %87, %81 ]
  %8 = getelementptr inbounds i8, ptr %.04958, i64 1
  %9 = load i8, ptr %.04958, align 1
  %10 = zext i8 %9 to i32
  %11 = icmp slt i8 %9, 0
  br i1 %11, label %12, label %30

12:                                               ; preds = %7
  %13 = getelementptr inbounds i8, ptr %.04958, i64 4
  %.not = icmp ult ptr %13, %2
  br i1 %.not, label %14, label %._crit_edge

14:                                               ; preds = %12
  %15 = shl nuw i32 %10, 24
  %16 = and i32 %15, 2130706432
  %17 = getelementptr inbounds i8, ptr %.04958, i64 2
  %18 = load i8, ptr %8, align 1
  %19 = zext i8 %18 to i32
  %20 = shl nuw nsw i32 %19, 16
  %21 = or disjoint i32 %20, %16
  %22 = getelementptr inbounds i8, ptr %.04958, i64 3
  %23 = load i8, ptr %17, align 1
  %24 = zext i8 %23 to i32
  %25 = shl nuw nsw i32 %24, 8
  %26 = or disjoint i32 %21, %25
  %27 = load i8, ptr %22, align 1
  %28 = zext i8 %27 to i32
  %29 = or disjoint i32 %26, %28
  br label %30

30:                                               ; preds = %14, %7
  %.1 = phi ptr [ %13, %14 ], [ %8, %7 ]
  %.047 = phi i32 [ %29, %14 ], [ %10, %7 ]
  %.not56 = icmp ult ptr %.1, %2
  br i1 %.not56, label %31, label %._crit_edge

31:                                               ; preds = %30
  %32 = getelementptr inbounds i8, ptr %.1, i64 1
  %33 = load i8, ptr %.1, align 1
  %34 = zext i8 %33 to i32
  %35 = icmp slt i8 %33, 0
  br i1 %35, label %36, label %54

36:                                               ; preds = %31
  %37 = getelementptr inbounds i8, ptr %.1, i64 4
  %.not57 = icmp ult ptr %37, %2
  br i1 %.not57, label %38, label %._crit_edge

38:                                               ; preds = %36
  %39 = shl nuw i32 %34, 24
  %40 = and i32 %39, 2130706432
  %41 = getelementptr inbounds i8, ptr %.1, i64 2
  %42 = load i8, ptr %32, align 1
  %43 = zext i8 %42 to i32
  %44 = shl nuw nsw i32 %43, 16
  %45 = or disjoint i32 %44, %40
  %46 = getelementptr inbounds i8, ptr %.1, i64 3
  %47 = load i8, ptr %41, align 1
  %48 = zext i8 %47 to i32
  %49 = shl nuw nsw i32 %48, 8
  %50 = or disjoint i32 %45, %49
  %51 = load i8, ptr %46, align 1
  %52 = zext i8 %51 to i32
  %53 = or disjoint i32 %50, %52
  br label %54

54:                                               ; preds = %38, %31
  %.2 = phi ptr [ %37, %38 ], [ %32, %31 ]
  %.0 = phi i32 [ %53, %38 ], [ %34, %31 ]
  %55 = add nuw i32 %.0, %.047
  %56 = ptrtoint ptr %.2 to i64
  %57 = sub i64 %5, %56
  %58 = trunc i64 %57 to i32
  %59 = icmp ugt i32 %55, %58
  br i1 %59, label %._crit_edge, label %60

60:                                               ; preds = %54
  %61 = icmp ult i32 %.047, 3
  br i1 %61, label %81, label %62

62:                                               ; preds = %60
  %63 = getelementptr inbounds i8, ptr %.2, i64 3
  %64 = load i8, ptr %63, align 1
  %65 = zext i8 %64 to i32
  %66 = add nsw i32 %.047, -2
  %67 = zext nneg i32 %66 to i64
  %68 = getelementptr inbounds i8, ptr %.2, i64 %67
  %69 = load i8, ptr %68, align 1
  %70 = zext i8 %69 to i32
  %71 = shl nuw nsw i32 %70, 4
  %72 = add nsw i32 %.047, -1
  %73 = zext nneg i32 %72 to i64
  %74 = getelementptr inbounds i8, ptr %.2, i64 %73
  %75 = load i8, ptr %74, align 1
  %76 = zext i8 %75 to i32
  %77 = add nuw nsw i32 %76, %65
  %78 = shl nuw nsw i32 %77, 2
  %79 = add nuw i32 %71, %.047
  %80 = add nuw i32 %79, %78
  br label %81

81:                                               ; preds = %60, %62
  %82 = phi i32 [ %80, %62 ], [ %.047, %60 ]
  %83 = zext nneg i32 %.047 to i64
  %84 = getelementptr inbounds i8, ptr %.2, i64 %83
  %85 = tail call fastcc ptr @fcgi_hash_set(ptr noundef nonnull %6, i32 noundef %82, ptr noundef nonnull %.2, i32 noundef %.047, ptr noundef nonnull %84, i32 noundef %.0)
  %86 = zext i32 %55 to i64
  %87 = getelementptr inbounds i8, ptr %.2, i64 %86
  %88 = icmp ult ptr %87, %2
  br i1 %88, label %7, label %._crit_edge

._crit_edge:                                      ; preds = %12, %30, %36, %54, %81, %3
  %.048 = phi i32 [ 1, %3 ], [ 1, %81 ], [ 0, %54 ], [ 0, %36 ], [ 0, %30 ], [ 0, %12 ]
  ret i32 %.048
}